target datalayout = "e-m:e-p270:32:32-p271:32:32-p272:64:64-i64:64-i128:128-f80:128-n8:16:32:64-S128"
target triple = "x86_64-pc-linux-gnu"

%struct.archive_match = type { %struct.archive, i32, i32, %struct.match_list, %struct.match_list, i64, i32, i64, i64, i32, i64, i64, i32, i64, i64, i32, i64, i64, %struct.archive_rb_tree, %struct.entry_list, %struct.id_array, %struct.id_array, %struct.match_list, %struct.match_list }
%struct.archive = type { i32, i32, ptr, i32, ptr, i32, i32, ptr, %struct.archive_string, ptr, i32, i32, ptr, ptr, i64, i64, i64, i8, i64 }
%struct.archive_string = type { ptr, i64, i64 }
%struct.archive_rb_tree = type { ptr, ptr }
%struct.entry_list = type { ptr, ptr, i32 }
%struct.id_array = type { i64, i64, ptr }
%struct.match_list = type { ptr, ptr, i32, i32, ptr, i32 }

@.str.26 = private unnamed_addr constant [26 x i8] c"archive_match_include_gid\00", align 1

; Function Attrs: nounwind uwtable
define dso_local i32 @archive_match_include_gid(ptr noundef %0, i64 noundef %1) #0 {
  %3 = alloca i32, align 4
  %4 = alloca ptr, align 8
  %5 = alloca i64, align 8
  %6 = alloca ptr, align 8
  %7 = alloca i32, align 4
  %8 = alloca i32, align 4
  store ptr %0, ptr %4, align 8, !tbaa !41
  store i64 %1, ptr %5, align 8, !tbaa !71
  call void @llvm.lifetime.start.p0(i64 8, ptr %6) #9
  br label %9

9:                                                ; preds = %2
  call void @llvm.lifetime.start.p0(i64 4, ptr %7) #9
  %10 = load ptr, ptr %4, align 8, !tbaa !41
  %11 = call i32 @__archive_check_magic(ptr noundef %10, i32 noundef 212668873, i32 noundef 1, ptr noundef @.str.26)
  store i32 %11, ptr %7, align 4, !tbaa !43
  %12 = load i32, ptr %7, align 4, !tbaa !43
  %13 = icmp eq i32 %12, -30
  br i1 %13, label %14, label %15

14:                                               ; preds = %9
  store i32 -30, ptr %3, align 4
  store i32 1, ptr %8, align 4
  br label %16

15:                                               ; preds = %9
  store i32 0, ptr %8, align 4
  br label %16

16:                                               ; preds = %15, %14
  call void @llvm.lifetime.end.p0(i64 4, ptr %7) #9
  %17 = load i32, ptr %8, align 4
  switch i32 %17, label %27 [
    i32 0, label %18
  ]

18:                                               ; preds = %16
  br label %19

19:                                               ; preds = %18
  br label %20

20:                                               ; preds = %19
  %21 = load ptr, ptr %4, align 8, !tbaa !41
  store ptr %21, ptr %6, align 8, !tbaa !4
  %22 = load ptr, ptr %6, align 8, !tbaa !4
  %23 = load ptr, ptr %6, align 8, !tbaa !4
  %24 = getelementptr inbounds nuw %struct.archive_match, ptr %23, i32 0, i32 21
  %25 = load i64, ptr %5, align 8, !tbaa !71
  %26 = call i32 @add_owner_id(ptr noundef %22, ptr noundef %24, i64 noundef %25)
  store i32 %26, ptr %3, align 4
  store i32 1, ptr %8, align 4
  br label %27

27:                                               ; preds = %20, %16
  call void @llvm.lifetime.end.p0(i64 8, ptr %6) #9
  %28 = load i32, ptr %3, align 4
  ret i32 %28
}